; ModuleID = '19/1224.c'
source_filename = "19/1224.c"
target datalayout = "e-m:e-p270:32:32-p271:32:32-p272:64:64-i64:64-f80:128-n8:16:32:64-S128"
target triple = "x86_64-pc-linux-gnu"

@.str = private unnamed_addr constant [3 x i8] c"%s\00", align 1
@.str.1 = private unnamed_addr constant [3 x i8] c"%c\00", align 1
@.str.2 = private unnamed_addr constant [2 x i8] c" \00", align 1
@.str.3 = private unnamed_addr constant [2 x i8] c"\0A\00", align 1

; Function Attrs: noinline nounwind uwtable
define dso_local void @main() #0 {
  %1 = alloca i8*, align 8
  %2 = alloca i8*, align 8
  %3 = alloca i8*, align 8
  %4 = alloca i8*, align 8
  %5 = alloca [100 x i8*], align 16
  %6 = alloca i32, align 4
  %7 = alloca i32, align 4
  %8 = alloca i32, align 4
  %9 = call noalias i8* @malloc(i64 100) #4
  store i8* %9, i8** %1, align 8
  %10 = call noalias i8* @malloc(i64 100) #4
  store i8* %10, i8** %2, align 8
  %11 = call noalias i8* @malloc(i64 100) #4
  store i8* %11, i8** %3, align 8
  store i32 0, i32* %6, align 4
  br label %12

12:                                               ; preds = %19, %0
  %13 = load i32, i32* %6, align 4
  %14 = icmp slt i32 %13, 100
  br i1 %14, label %15, label %22

15:                                               ; preds = %12
  %16 = load i8*, i8** %1, align 8
  store i8 0, i8* %16, align 1
  %17 = load i8*, i8** %2, align 8
  store i8 0, i8* %17, align 1
  %18 = load i8*, i8** %3, align 8
  store i8 0, i8* %18, align 1
  br label %19

19:                                               ; preds = %15
  %20 = load i32, i32* %6, align 4
  %21 = add nsw i32 %20, 1
  store i32 %21, i32* %6, align 4
  br label %12

22:                                               ; preds = %12
  %23 = load i8*, i8** %1, align 8
  %24 = call i32 (i8*, ...) bitcast (i32 (...)* @gets to i32 (i8*, ...)*)(i8* %23)
  %25 = load i8*, i8** %2, align 8
  %26 = call i32 (i8*, ...) @__isoc99_scanf(i8* getelementptr inbounds ([3 x i8], [3 x i8]* @.str, i64 0, i64 0), i8* %25)
  %27 = load i8*, i8** %3, align 8
  %28 = call i32 (i8*, ...) @__isoc99_scanf(i8* getelementptr inbounds ([3 x i8], [3 x i8]* @.str, i64 0, i64 0), i8* %27)
  %29 = call noalias i8* @malloc(i64 100) #4
  %30 = getelementptr inbounds [100 x i8*], [100 x i8*]* %5, i64 0, i64 0
  store i8* %29, i8** %30, align 16
  store i32 0, i32* %7, align 4
  br label %31

31:                                               ; preds = %40, %22
  %32 = load i32, i32* %7, align 4
  %33 = icmp slt i32 %32, 100
  br i1 %33, label %34, label %43

34:                                               ; preds = %31
  %35 = getelementptr inbounds [100 x i8*], [100 x i8*]* %5, i64 0, i64 0
  %36 = load i8*, i8** %35, align 16
  %37 = load i32, i32* %7, align 4
  %38 = sext i32 %37 to i64
  %39 = getelementptr inbounds i8, i8* %36, i64 %38
  store i8 0, i8* %39, align 1
  br label %40

40:                                               ; preds = %34
  %41 = load i32, i32* %7, align 4
  %42 = add nsw i32 %41, 1
  store i32 %42, i32* %7, align 4
  br label %31

43:                                               ; preds = %31
  store i32 0, i32* %6, align 4
  store i32 0, i32* %7, align 4
  %44 = load i8*, i8** %1, align 8
  store i8* %44, i8** %4, align 8
  br label %45

45:                                               ; preds = %90, %43
  %46 = load i8*, i8** %4, align 8
  %47 = load i8, i8* %46, align 1
  %48 = sext i8 %47 to i32
  %49 = icmp ne i32 %48, 0
  br i1 %49, label %50, label %93

50:                                               ; preds = %45
  %51 = load i8*, i8** %4, align 8
  %52 = load i8, i8* %51, align 1
  %53 = sext i8 %52 to i32
  %54 = icmp ne i32 %53, 32
  br i1 %54, label %55, label %67

55:                                               ; preds = %50
  %56 = load i8*, i8** %4, align 8
  %57 = load i8, i8* %56, align 1
  %58 = load i32, i32* %6, align 4
  %59 = sext i32 %58 to i64
  %60 = getelementptr inbounds [100 x i8*], [100 x i8*]* %5, i64 0, i64 %59
  %61 = load i8*, i8** %60, align 8
  %62 = load i32, i32* %7, align 4
  %63 = sext i32 %62 to i64
  %64 = getelementptr inbounds i8, i8* %61, i64 %63
  store i8 %57, i8* %64, align 1
  %65 = load i32, i32* %7, align 4
  %66 = add nsw i32 %65, 1
  store i32 %66, i32* %7, align 4
  br label %89

67:                                               ; preds = %50
  %68 = load i32, i32* %6, align 4
  %69 = add nsw i32 %68, 1
  store i32 %69, i32* %6, align 4
  %70 = call noalias i8* @malloc(i64 100) #4
  %71 = load i32, i32* %6, align 4
  %72 = sext i32 %71 to i64
  %73 = getelementptr inbounds [100 x i8*], [100 x i8*]* %5, i64 0, i64 %72
  store i8* %70, i8** %73, align 8
  store i32 0, i32* %7, align 4
  br label %74

74:                                               ; preds = %85, %67
  %75 = load i32, i32* %7, align 4
  %76 = icmp slt i32 %75, 100
  br i1 %76, label %77, label %88

77:                                               ; preds = %74
  %78 = load i32, i32* %6, align 4
  %79 = sext i32 %78 to i64
  %80 = getelementptr inbounds [100 x i8*], [100 x i8*]* %5, i64 0, i64 %79
  %81 = load i8*, i8** %80, align 8
  %82 = load i32, i32* %7, align 4
  %83 = sext i32 %82 to i64
  %84 = getelementptr inbounds i8, i8* %81, i64 %83
  store i8 0, i8* %84, align 1
  br label %85

85:                                               ; preds = %77
  %86 = load i32, i32* %7, align 4
  %87 = add nsw i32 %86, 1
  store i32 %87, i32* %7, align 4
  br label %74

88:                                               ; preds = %74
  store i32 0, i32* %7, align 4
  br label %89

89:                                               ; preds = %88, %55
  br label %90

90:                                               ; preds = %89
  %91 = load i8*, i8** %4, align 8
  %92 = getelementptr inbounds i8, i8* %91, i32 1
  store i8* %92, i8** %4, align 8
  br label %45

93:                                               ; preds = %45
  %94 = load i32, i32* %6, align 4
  store i32 %94, i32* %8, align 4
  store i32 0, i32* %6, align 4
  br label %95

95:                                               ; preds = %142, %93
  %96 = load i32, i32* %6, align 4
  %97 = load i32, i32* %8, align 4
  %98 = icmp slt i32 %96, %97
  br i1 %98, label %99, label %145

99:                                               ; preds = %95
  %100 = load i32, i32* %6, align 4
  %101 = sext i32 %100 to i64
  %102 = getelementptr inbounds [100 x i8*], [100 x i8*]* %5, i64 0, i64 %101
  %103 = load i8*, i8** %102, align 8
  %104 = load i8*, i8** %2, align 8
  %105 = call i32 @strcmp(i8* %103, i8* %104) #5
  %106 = icmp eq i32 %105, 0
  br i1 %106, label %107, label %114

107:                                              ; preds = %99
  %108 = load i32, i32* %6, align 4
  %109 = sext i32 %108 to i64
  %110 = getelementptr inbounds [100 x i8*], [100 x i8*]* %5, i64 0, i64 %109
  %111 = load i8*, i8** %110, align 8
  %112 = load i8*, i8** %3, align 8
  %113 = call i8* @strcpy(i8* %111, i8* %112) #4
  br label %114

114:                                              ; preds = %107, %99
  store i32 0, i32* %7, align 4
  br label %115

115:                                              ; preds = %137, %114
  %116 = load i32, i32* %6, align 4
  %117 = sext i32 %116 to i64
  %118 = getelementptr inbounds [100 x i8*], [100 x i8*]* %5, i64 0, i64 %117
  %119 = load i8*, i8** %118, align 8
  %120 = load i32, i32* %7, align 4
  %121 = sext i32 %120 to i64
  %122 = getelementptr inbounds i8, i8* %119, i64 %121
  %123 = load i8, i8* %122, align 1
  %124 = sext i8 %123 to i32
  %125 = icmp ne i32 %124, 0
  br i1 %125, label %126, label %140

126:                                              ; preds = %115
  %127 = load i32, i32* %6, align 4
  %128 = sext i32 %127 to i64
  %129 = getelementptr inbounds [100 x i8*], [100 x i8*]* %5, i64 0, i64 %128
  %130 = load i8*, i8** %129, align 8
  %131 = load i32, i32* %7, align 4
  %132 = sext i32 %131 to i64
  %133 = getelementptr inbounds i8, i8* %130, i64 %132
  %134 = load i8, i8* %133, align 1
  %135 = sext i8 %134 to i32
  %136 = call i32 (i8*, ...) @printf(i8* getelementptr inbounds ([3 x i8], [3 x i8]* @.str.1, i64 0, i64 0), i32 %135)
  br label %137

137:                                              ; preds = %126
  %138 = load i32, i32* %7, align 4
  %139 = add nsw i32 %138, 1
  store i32 %139, i32* %7, align 4
  br label %115

140:                                              ; preds = %115
  %141 = call i32 (i8*, ...) @printf(i8* getelementptr inbounds ([2 x i8], [2 x i8]* @.str.2, i64 0, i64 0))
  br label %142

142:                                              ; preds = %140
  %143 = load i32, i32* %6, align 4
  %144 = add nsw i32 %143, 1
  store i32 %144, i32* %6, align 4
  br label %95

145:                                              ; preds = %95
  %146 = load i32, i32* %8, align 4
  %147 = sext i32 %146 to i64
  %148 = getelementptr inbounds [100 x i8*], [100 x i8*]* %5, i64 0, i64 %147
  %149 = load i8*, i8** %148, align 8
  %150 = load i8*, i8** %2, align 8
  %151 = call i32 @strcmp(i8* %149, i8* %150) #5
  %152 = icmp eq i32 %151, 0
  br i1 %152, label %153, label %160

153:                                              ; preds = %145
  %154 = load i32, i32* %8, align 4
  %155 = sext i32 %154 to i64
  %156 = getelementptr inbounds [100 x i8*], [100 x i8*]* %5, i64 0, i64 %155
  %157 = load i8*, i8** %156, align 8
  %158 = load i8*, i8** %3, align 8
  %159 = call i8* @strcpy(i8* %157, i8* %158) #4
  br label %160

160:                                              ; preds = %153, %145
  store i32 0, i32* %7, align 4
  br label %161

161:                                              ; preds = %183, %160
  %162 = load i32, i32* %8, align 4
  %163 = sext i32 %162 to i64
  %164 = getelementptr inbounds [100 x i8*], [100 x i8*]* %5, i64 0, i64 %163
  %165 = load i8*, i8** %164, align 8
  %166 = load i32, i32* %7, align 4
  %167 = sext i32 %166 to i64
  %168 = getelementptr inbounds i8, i8* %165, i64 %167
  %169 = load i8, i8* %168, align 1
  %170 = sext i8 %169 to i32
  %171 = icmp ne i32 %170, 0
  br i1 %171, label %172, label %186

172:                                              ; preds = %161
  %173 = load i32, i32* %8, align 4
  %174 = sext i32 %173 to i64
  %175 = getelementptr inbounds [100 x i8*], [100 x i8*]* %5, i64 0, i64 %174
  %176 = load i8*, i8** %175, align 8
  %177 = load i32, i32* %7, align 4
  %178 = sext i32 %177 to i64
  %179 = getelementptr inbounds i8, i8* %176, i64 %178
  %180 = load i8, i8* %179, align 1
  %181 = sext i8 %180 to i32
  %182 = call i32 (i8*, ...) @printf(i8* getelementptr inbounds ([3 x i8], [3 x i8]* @.str.1, i64 0, i64 0), i32 %181)
  br label %183

183:                                              ; preds = %172
  %184 = load i32, i32* %7, align 4
  %185 = add nsw i32 %184, 1
  store i32 %185, i32* %7, align 4
  br label %161

186:                                              ; preds = %161
  %187 = call i32 (i8*, ...) @printf(i8* getelementptr inbounds ([2 x i8], [2 x i8]* @.str.3, i64 0, i64 0))
  ret void
}

; Function Attrs: nounwind
declare dso_local noalias i8* @malloc(i64) #1

declare dso_local i32 @gets(...) #2

declare dso_local i32 @__isoc99_scanf(i8*, ...) #2

; Function Attrs: nounwind readonly
declare dso_local i32 @strcmp(i8*, i8*) #3

; Function Attrs: nounwind
declare dso_local i8* @strcpy(i8*, i8*) #1

declare dso_local i32 @printf(i8*, ...) #2


!llvm.module.flags = !{!0}
!llvm.ident = !{!1}

!0 = !{i32 1, !"wchar_size", i32 4}
!1 = !{!"clang version 10.0.0-4ubuntu1 "}
